target datalayout = "e-m:e-p270:32:32-p271:32:32-p272:64:64-i64:64-i128:128-f80:128-n8:16:32:64-S128"
target triple = "x86_64-pc-linux-gnu"

%struct.jit_State = type { %struct.GCtrace, ptr, ptr, ptr, ptr, ptr, ptr, i32, i32, i32, i8, i8, %struct.IRType1, i8, %struct.FoldState, ptr, i32, i32, i32, i32, i32, i32, i32, [1 x i32], [5 x %union.TValue], [3 x %union.TValue], ptr, i32, i32, i32, i32, ptr, ptr, i32, i32, i8, ptr, i32, i32, i16, [101 x i16], [258 x i32], [15 x i32], [16 x ptr], [64 x %struct.HotPenalty], i32, [16 x %struct.BPropEntry], i32, %struct.ScEvEntry, ptr, i32, i32, i32, ptr, i32, i32, ptr, ptr, ptr, i64, i64, %union.TValue, ptr, i32, i32 }
%struct.GCtrace = type { %struct.GCRef, i8, i8, i16, i32, i32, %struct.GCRef, ptr, i32, i32, ptr, ptr, %struct.GCRef, %struct.MRef, i32, i32, ptr, i32, i16, i16, i16, i16, i16, i16, i16, i8, i8, i8, i8 }
%struct.GCRef = type { i64 }
%struct.MRef = type { i64 }
%struct.IRType1 = type { i8 }
%struct.FoldState = type { %union.IRIns, [2 x %union.IRIns], [2 x %union.IRIns] }
%union.IRIns = type { %struct.GCRef }
%struct.HotPenalty = type { %struct.MRef, i16, i16 }
%struct.BPropEntry = type { i16, i16, i32 }
%struct.ScEvEntry = type { %struct.MRef, i16, i16, i16, i16, %struct.IRType1, i8 }
%union.TValue = type { i64 }
%struct.RecordFFData = type { ptr, i64, i32 }
%struct.GG_State = type { %struct.lua_State, %struct.global_State, %struct.jit_State, [64 x i16], [243 x ptr], [57 x i32] }
%struct.lua_State = type { %struct.GCRef, i8, i8, i8, i8, %struct.MRef, %struct.GCRef, ptr, ptr, %struct.MRef, %struct.MRef, %struct.GCRef, %struct.GCRef, ptr, i32 }
%struct.global_State = type { ptr, ptr, %struct.GCState, %struct.GCstr, i8, i8, i8, i8, %struct.StrInternState, i32, %struct.GCRef, %struct.SBuf, %union.TValue, %union.TValue, %struct.Node, %union.TValue, %struct.GCupval, i32, i32, ptr, ptr, ptr, i32, i32, %struct.GCRef, %struct.MRef, %struct.MRef, %struct.PRNGState, [39 x %struct.GCRef] }
%struct.GCState = type { i64, i64, i8, i8, i8, i8, i32, %struct.GCRef, %struct.MRef, %struct.GCRef, %struct.GCRef, %struct.GCRef, %struct.GCRef, i64, i64, i32, i32, %struct.MRef }
%struct.GCstr = type { %struct.GCRef, i8, i8, i8, i8, i32, i32, i32 }
%struct.StrInternState = type { ptr, i32, i32, i32, i8, i8, i8, i8, i64 }
%struct.SBuf = type { ptr, ptr, ptr, %struct.MRef }
%struct.Node = type { %union.TValue, %union.TValue, %struct.MRef }
%struct.GCupval = type { %struct.GCRef, i8, i8, i8, i8, %union.anon, %struct.MRef, i32 }
%union.anon = type { %struct.anon.3 }
%struct.anon.3 = type { %struct.GCRef, %struct.GCRef }
%struct.PRNGState = type { [4 x i64] }
%struct.CType = type { i32, i32, i16, i16, %struct.GCRef }
%struct.anon = type { i16, i16, i16, i16 }

; Function Attrs: alwaysinline nounwind uwtable
define internal void @lj_ir_set_(ptr noundef %0, i16 noundef zeroext %1, i16 noundef zeroext %2, i16 noundef zeroext %3) #2 {
  %5 = alloca ptr, align 8
  %6 = alloca i16, align 2
  %7 = alloca i16, align 2
  %8 = alloca i16, align 2
  store ptr %0, ptr %5, align 8, !tbaa !4
  store i16 %1, ptr %6, align 2, !tbaa !70
  store i16 %2, ptr %7, align 2, !tbaa !70
  store i16 %3, ptr %8, align 2, !tbaa !70
  %9 = load i16, ptr %6, align 2, !tbaa !70
  %10 = load ptr, ptr %5, align 8, !tbaa !4
  %11 = getelementptr inbounds nuw %struct.jit_State, ptr %10, i32 0, i32 14
  %12 = getelementptr inbounds nuw %struct.FoldState, ptr %11, i32 0, i32 0
  %13 = getelementptr inbounds nuw %struct.anon, ptr %12, i32 0, i32 2
  store i16 %9, ptr %13, align 4, !tbaa !58
  %14 = load i16, ptr %7, align 2, !tbaa !70
  %15 = load ptr, ptr %5, align 8, !tbaa !4
  %16 = getelementptr inbounds nuw %struct.jit_State, ptr %15, i32 0, i32 14
  %17 = getelementptr inbounds nuw %struct.FoldState, ptr %16, i32 0, i32 0
  %18 = getelementptr inbounds nuw %struct.anon, ptr %17, i32 0, i32 0
  store i16 %14, ptr %18, align 8, !tbaa !58
  %19 = load i16, ptr %8, align 2, !tbaa !70
  %20 = load ptr, ptr %5, align 8, !tbaa !4
  %21 = getelementptr inbounds nuw %struct.jit_State, ptr %20, i32 0, i32 14
  %22 = getelementptr inbounds nuw %struct.FoldState, ptr %21, i32 0, i32 0
  %23 = getelementptr inbounds nuw %struct.anon, ptr %22, i32 0, i32 1
  store i16 %19, ptr %23, align 2, !tbaa !58
  ret void
}

; Function Attrs: nounwind uwtable
define hidden void @recff_ffi_xof(ptr noundef %0, ptr noundef %1) #0 {
  %3 = alloca ptr, align 8
  %4 = alloca ptr, align 8
  %5 = alloca i32, align 4
  %6 = alloca ptr, align 8
  store ptr %0, ptr %3, align 8, !tbaa !4
  store ptr %1, ptr %4, align 8, !tbaa !9
  call void @llvm.lifetime.start.p0(i64 4, ptr %5) #7
  %7 = load ptr, ptr %3, align 8, !tbaa !4
  %8 = load ptr, ptr %3, align 8, !tbaa !4
  %9 = getelementptr inbounds nuw %struct.jit_State, ptr %8, i32 0, i32 6
  %10 = load ptr, ptr %9, align 8, !tbaa !11
  %11 = getelementptr inbounds i32, ptr %10, i64 0
  %12 = load i32, ptr %11, align 4, !tbaa !31
  %13 = load ptr, ptr %4, align 8, !tbaa !9
  %14 = getelementptr inbounds nuw %struct.RecordFFData, ptr %13, i32 0, i32 0
  %15 = load ptr, ptr %14, align 8, !tbaa !33
  %16 = getelementptr inbounds %union.TValue, ptr %15, i64 0
  %17 = call i32 @argv2ctype(ptr noundef %7, i32 noundef %12, ptr noundef %16)
  store i32 %17, ptr %5, align 4, !tbaa !31
  %18 = load ptr, ptr %4, align 8, !tbaa !9
  %19 = getelementptr inbounds nuw %struct.RecordFFData, ptr %18, i32 0, i32 2
  %20 = load i32, ptr %19, align 8, !tbaa !64
  %21 = icmp eq i32 %20, 193
  br i1 %21, label %22, label %40

22:                                               ; preds = %2
  call void @llvm.lifetime.start.p0(i64 8, ptr %6) #7
  %23 = load ptr, ptr %3, align 8, !tbaa !4
  %24 = getelementptr inbounds i8, ptr %23, i64 -832
  %25 = getelementptr inbounds nuw %struct.GG_State, ptr %24, i32 0, i32 1
  %26 = getelementptr inbounds nuw %struct.global_State, ptr %25, i32 0, i32 26
  %27 = getelementptr inbounds nuw %struct.MRef, ptr %26, i32 0, i32 0
  %28 = load i64, ptr %27, align 8, !tbaa !38
  %29 = inttoptr i64 %28 to ptr
  %30 = load i32, ptr %5, align 4, !tbaa !31
  %31 = call ptr @lj_ctype_rawref(ptr noundef %29, i32 noundef %30)
  store ptr %31, ptr %6, align 8, !tbaa !53
  %32 = load ptr, ptr %6, align 8, !tbaa !53
  %33 = getelementptr inbounds nuw %struct.CType, ptr %32, i32 0, i32 0
  %34 = load i32, ptr %33, align 8, !tbaa !55
  %35 = and i32 %34, -804257792
  %36 = icmp eq i32 %35, 269484032
  br i1 %36, label %37, label %39

37:                                               ; preds = %22
  %38 = load ptr, ptr %3, align 8, !tbaa !4
  call void @lj_trace_err(ptr noundef %38, i32 noundef 11) #8
  unreachable

39:                                               ; preds = %22
  call void @llvm.lifetime.end.p0(i64 8, ptr %6) #7
  br label %79

40:                                               ; preds = %2
  %41 = load ptr, ptr %4, align 8, !tbaa !9
  %42 = getelementptr inbounds nuw %struct.RecordFFData, ptr %41, i32 0, i32 2
  %43 = load i32, ptr %42, align 8, !tbaa !64
  %44 = icmp eq i32 %43, 195
  br i1 %44, label %45, label %78

45:                                               ; preds = %40
  %46 = load ptr, ptr %3, align 8, !tbaa !4
  %47 = getelementptr inbounds nuw %struct.jit_State, ptr %46, i32 0, i32 6
  %48 = load ptr, ptr %47, align 8, !tbaa !11
  %49 = getelementptr inbounds i32, ptr %48, i64 1
  %50 = load i32, ptr %49, align 4, !tbaa !31
  %51 = and i32 %50, 520093696
  %52 = icmp eq i32 %51, 67108864
  br i1 %52, label %55, label %53

53:                                               ; preds = %45
  %54 = load ptr, ptr %3, align 8, !tbaa !4
  call void @lj_trace_err(ptr noundef %54, i32 noundef 11) #8
  unreachable

55:                                               ; preds = %45
  %56 = load ptr, ptr %3, align 8, !tbaa !4
  %57 = load ptr, ptr %3, align 8, !tbaa !4
  %58 = getelementptr inbounds nuw %struct.jit_State, ptr %57, i32 0, i32 6
  %59 = load ptr, ptr %58, align 8, !tbaa !11
  %60 = getelementptr inbounds i32, ptr %59, i64 1
  %61 = load i32, ptr %60, align 4, !tbaa !31
  %62 = trunc i32 %61 to i16
  %63 = load ptr, ptr %3, align 8, !tbaa !4
  %64 = load ptr, ptr %4, align 8, !tbaa !9
  %65 = getelementptr inbounds nuw %struct.RecordFFData, ptr %64, i32 0, i32 0
  %66 = load ptr, ptr %65, align 8, !tbaa !33
  %67 = getelementptr inbounds %union.TValue, ptr %66, i64 1
  %68 = getelementptr inbounds nuw %struct.GCRef, ptr %67, i32 0, i32 0
  %69 = load i64, ptr %68, align 8, !tbaa !58
  %70 = and i64 %69, 140737488355327
  %71 = inttoptr i64 %70 to ptr
  %72 = call i32 @lj_ir_kgc(ptr noundef %63, ptr noundef %71, i32 noundef 4)
  %73 = trunc i32 %72 to i16
  call void @lj_ir_set_(ptr noundef %56, i16 noundef zeroext 2180, i16 noundef zeroext %62, i16 noundef zeroext %73)
  %74 = load ptr, ptr %3, align 8, !tbaa !4
  %75 = call i32 @lj_opt_fold(ptr noundef %74)
  %76 = load ptr, ptr %4, align 8, !tbaa !9
  %77 = getelementptr inbounds nuw %struct.RecordFFData, ptr %76, i32 0, i32 1
  store i64 3, ptr %77, align 8, !tbaa !65
  br label %78

78:                                               ; preds = %55, %40
  br label %79

79:                                               ; preds = %78, %39
  %80 = load ptr, ptr %3, align 8, !tbaa !4
  %81 = getelementptr inbounds nuw %struct.jit_State, ptr %80, i32 0, i32 34
  store i32 5, ptr %81, align 4, !tbaa !78
  %82 = load ptr, ptr %3, align 8, !tbaa !4
  %83 = getelementptr inbounds nuw %struct.jit_State, ptr %82, i32 0, i32 6
  %84 = load ptr, ptr %83, align 8, !tbaa !11
  %85 = getelementptr inbounds i32, ptr %84, i64 2
  store i32 32767, ptr %85, align 4, !tbaa !31
  %86 = load ptr, ptr %3, align 8, !tbaa !4
  %87 = getelementptr inbounds nuw %struct.jit_State, ptr %86, i32 0, i32 6
  %88 = load ptr, ptr %87, align 8, !tbaa !11
  %89 = getelementptr inbounds i32, ptr %88, i64 1
  store i32 32767, ptr %89, align 4, !tbaa !31
  %90 = load ptr, ptr %3, align 8, !tbaa !4
  %91 = getelementptr inbounds nuw %struct.jit_State, ptr %90, i32 0, i32 6
  %92 = load ptr, ptr %91, align 8, !tbaa !11
  %93 = getelementptr inbounds i32, ptr %92, i64 0
  store i32 32767, ptr %93, align 4, !tbaa !31
  call void @llvm.lifetime.end.p0(i64 4, ptr %5) #7
  ret void
}