; Function Attrs: nounwind uwtable
define hidden void @recff_ffi_xof(ptr noundef %0, ptr noundef captures(none) %1) local_unnamed_addr #0 {
  %3 = getelementptr inbounds nuw i8, ptr %0, i64 160
  %4 = load ptr, ptr %3, align 8, !tbaa !4
  %5 = load i32, ptr %4, align 4, !tbaa !27
  %6 = load ptr, ptr %1, align 8, !tbaa !28
  %7 = tail call fastcc i32 @argv2ctype(ptr noundef %0, i32 noundef %5, ptr noundef %6)
  %8 = getelementptr inbounds nuw i8, ptr %1, i64 16
  %9 = load i32, ptr %8, align 8, !tbaa !63
  switch i32 %9, label %40 [
    i32 193, label %10
    i32 195, label %19
  ]

10:                                               ; preds = %2
  %11 = getelementptr inbounds i8, ptr %0, i64 -352
  %12 = load i64, ptr %11, align 8, !tbaa !34
  %13 = inttoptr i64 %12 to ptr
  %14 = tail call ptr @lj_ctype_rawref(ptr noundef %13, i32 noundef %7) #8
  %15 = load i32, ptr %14, align 8, !tbaa !53
  %16 = and i32 %15, -804257792
  %17 = icmp eq i32 %16, 269484032
  br i1 %17, label %18, label %40

18:                                               ; preds = %10
  tail call void @lj_trace_err(ptr noundef nonnull %0, i32 noundef 11) #7
  unreachable

19:                                               ; preds = %2
  %20 = load ptr, ptr %3, align 8, !tbaa !4
  %21 = getelementptr inbounds nuw i8, ptr %20, i64 4
  %22 = load i32, ptr %21, align 4, !tbaa !27
  %23 = and i32 %22, 520093696
  %24 = icmp eq i32 %23, 67108864
  br i1 %24, label %26, label %25

25:                                               ; preds = %19
  tail call void @lj_trace_err(ptr noundef nonnull %0, i32 noundef 11) #7
  unreachable

26:                                               ; preds = %19
  %27 = trunc i32 %22 to i16
  %28 = load ptr, ptr %1, align 8, !tbaa !28
  %29 = getelementptr inbounds nuw i8, ptr %28, i64 8
  %30 = load i64, ptr %29, align 8, !tbaa !31
  %31 = and i64 %30, 140737488355327
  %32 = inttoptr i64 %31 to ptr
  %33 = tail call i32 @lj_ir_kgc(ptr noundef nonnull %0, ptr noundef %32, i32 noundef 4) #8
  %34 = trunc i32 %33 to i16
  %35 = getelementptr inbounds nuw i8, ptr %0, i64 184
  %36 = getelementptr inbounds nuw i8, ptr %0, i64 188
  store i16 2180, ptr %36, align 4, !tbaa !31
  store i16 %27, ptr %35, align 8, !tbaa !31
  %37 = getelementptr inbounds nuw i8, ptr %0, i64 186
  store i16 %34, ptr %37, align 2, !tbaa !31
  %38 = tail call i32 @lj_opt_fold(ptr noundef nonnull %0) #8
  %39 = getelementptr inbounds nuw i8, ptr %1, i64 8
  store i64 3, ptr %39, align 8, !tbaa !65
  br label %40

40:                                               ; preds = %2, %10, %26
  %41 = getelementptr inbounds nuw i8, ptr %0, i64 372
  store i32 5, ptr %41, align 4, !tbaa !64
  %42 = load ptr, ptr %3, align 8, !tbaa !4
  %43 = getelementptr inbounds nuw i8, ptr %42, i64 8
  store i32 32767, ptr %43, align 4, !tbaa !27
  %44 = getelementptr inbounds nuw i8, ptr %42, i64 4
  store i32 32767, ptr %44, align 4, !tbaa !27
  store i32 32767, ptr %42, align 4, !tbaa !27
  ret void
}